; Function Attrs: mustprogress nofree nounwind willreturn memory(argmem: readwrite) uwtable
define void @_Z11AddEndSlashPwm(ptr noundef captures(none) %0, i64 noundef %1) local_unnamed_addr #7 {
  %3 = tail call i64 @wcslen(ptr noundef %0) #18
  %.not = icmp eq i64 %3, 0
  br i1 %.not, label %13, label %4

4:                                                ; preds = %2
  %5 = getelementptr i32, ptr %0, i64 %3
  %6 = getelementptr i8, ptr %5, i64 -4
  %7 = load i32, ptr %6, align 4
  %.not10 = icmp eq i32 %7, 47
  br i1 %.not10, label %13, label %8

8:                                                ; preds = %4
  %9 = add i64 %3, 1
  %10 = icmp ult i64 %9, %1
  br i1 %10, label %11, label %13

11:                                               ; preds = %8
  store i32 47, ptr %5, align 4
  %12 = getelementptr inbounds i32, ptr %0, i64 %9
  store i32 0, ptr %12, align 4
  br label %13

13:                                               ; preds = %11, %8, %4, %2
  ret void
}